; ModuleID = '11/149.c'
source_filename = "11/149.c"
target datalayout = "e-m:e-p270:32:32-p271:32:32-p272:64:64-i64:64-f80:128-n8:16:32:64-S128"
target triple = "x86_64-pc-linux-gnu"

@.str = private unnamed_addr constant [9 x i8] c"%d %d %d\00", align 1
@__const.main.day_of_month = private unnamed_addr constant [13 x i32] [i32 0, i32 31, i32 29, i32 31, i32 30, i32 31, i32 30, i32 31, i32 30, i32 31, i32 31, i32 30, i32 31], align 16
@__const.main.day_of_month.1 = private unnamed_addr constant [13 x i32] [i32 0, i32 31, i32 28, i32 31, i32 30, i32 31, i32 30, i32 31, i32 30, i32 31, i32 31, i32 30, i32 31], align 16
@.str.2 = private unnamed_addr constant [3 x i8] c"%d\00", align 1

; Function Attrs: noinline nounwind uwtable
define dso_local i32 @main() #0 {
  %1 = alloca i32, align 4
  %2 = alloca i32, align 4
  %3 = alloca i32, align 4
  %4 = alloca i32, align 4
  %5 = alloca i32, align 4
  %6 = alloca [13 x i32], align 16
  %7 = alloca i32, align 4
  %8 = alloca [13 x i32], align 16
  %9 = alloca i32, align 4
  store i32 0, i32* %1, align 4
  store i32 0, i32* %5, align 4
  %10 = call i32 (i8*, ...) @__isoc99_scanf(i8* getelementptr inbounds ([9 x i8], [9 x i8]* @.str, i64 0, i64 0), i32* %2, i32* %3, i32* %4)
  %11 = load i32, i32* %2, align 4
  %12 = srem i32 %11, 4
  %13 = icmp eq i32 %12, 0
  br i1 %13, label %14, label %18

14:                                               ; preds = %0
  %15 = load i32, i32* %2, align 4
  %16 = srem i32 %15, 100
  %17 = icmp ne i32 %16, 0
  br i1 %17, label %22, label %18

18:                                               ; preds = %14, %0
  %19 = load i32, i32* %2, align 4
  %20 = srem i32 %19, 400
  %21 = icmp eq i32 %20, 0
  br i1 %21, label %22, label %41

22:                                               ; preds = %18, %14
  %23 = bitcast [13 x i32]* %6 to i8*
  call void @llvm.memcpy.p0i8.p0i8.i64(i8* align 16 %23, i8* align 16 bitcast ([13 x i32]* @__const.main.day_of_month to i8*), i64 52, i1 false)
  store i32 1, i32* %7, align 4
  br label %24

24:                                               ; preds = %28, %22
  %25 = load i32, i32* %7, align 4
  %26 = load i32, i32* %3, align 4
  %27 = icmp slt i32 %25, %26
  br i1 %27, label %28, label %37

28:                                               ; preds = %24
  %29 = load i32, i32* %5, align 4
  %30 = load i32, i32* %7, align 4
  %31 = sext i32 %30 to i64
  %32 = getelementptr inbounds [13 x i32], [13 x i32]* %6, i64 0, i64 %31
  %33 = load i32, i32* %32, align 4
  %34 = add nsw i32 %29, %33
  store i32 %34, i32* %5, align 4
  %35 = load i32, i32* %7, align 4
  %36 = add nsw i32 %35, 1
  store i32 %36, i32* %7, align 4
  br label %24

37:                                               ; preds = %24
  %38 = load i32, i32* %5, align 4
  %39 = load i32, i32* %4, align 4
  %40 = add nsw i32 %38, %39
  store i32 %40, i32* %5, align 4
  br label %60

41:                                               ; preds = %18
  %42 = bitcast [13 x i32]* %8 to i8*
  call void @llvm.memcpy.p0i8.p0i8.i64(i8* align 16 %42, i8* align 16 bitcast ([13 x i32]* @__const.main.day_of_month.1 to i8*), i64 52, i1 false)
  store i32 1, i32* %9, align 4
  br label %43

43:                                               ; preds = %47, %41
  %44 = load i32, i32* %9, align 4
  %45 = load i32, i32* %3, align 4
  %46 = icmp slt i32 %44, %45
  br i1 %46, label %47, label %56

47:                                               ; preds = %43
  %48 = load i32, i32* %5, align 4
  %49 = load i32, i32* %9, align 4
  %50 = sext i32 %49 to i64
  %51 = getelementptr inbounds [13 x i32], [13 x i32]* %8, i64 0, i64 %50
  %52 = load i32, i32* %51, align 4
  %53 = add nsw i32 %48, %52
  store i32 %53, i32* %5, align 4
  %54 = load i32, i32* %9, align 4
  %55 = add nsw i32 %54, 1
  store i32 %55, i32* %9, align 4
  br label %43

56:                                               ; preds = %43
  %57 = load i32, i32* %5, align 4
  %58 = load i32, i32* %4, align 4
  %59 = add nsw i32 %57, %58
  store i32 %59, i32* %5, align 4
  br label %60

60:                                               ; preds = %56, %37
  %61 = load i32, i32* %5, align 4
  %62 = call i32 (i8*, ...) @printf(i8* getelementptr inbounds ([3 x i8], [3 x i8]* @.str.2, i64 0, i64 0), i32 %61)
  ret i32 0
}

declare dso_local i32 @__isoc99_scanf(i8*, ...) #1

; Function Attrs: argmemonly nounwind willreturn
declare void @llvm.memcpy.p0i8.p0i8.i64(i8* noalias nocapture writeonly, i8* noalias nocapture readonly, i64, i1 immarg) #2

declare dso_local i32 @printf(i8*, ...) #1


!llvm.module.flags = !{!0}
!llvm.ident = !{!1}

!0 = !{i32 1, !"wchar_size", i32 4}
!1 = !{!"clang version 10.0.0-4ubuntu1 "}
